target datalayout = "e-m:e-p270:32:32-p271:32:32-p272:64:64-i64:64-i128:128-f80:128-n8:16:32:64-S128"
target triple = "x86_64-pc-linux-gnu"

; Function Attrs: nounwind uwtable
define dso_local void @feTimestampDifference(i64 noundef %0, i64 noundef %1, ptr noundef %2, ptr noundef %3) #0 {
  %5 = alloca i64, align 8
  %6 = alloca i64, align 8
  %7 = alloca ptr, align 8
  %8 = alloca ptr, align 8
  %9 = alloca i64, align 8
  store i64 %0, ptr %5, align 8
  store i64 %1, ptr %6, align 8
  store ptr %2, ptr %7, align 8
  store ptr %3, ptr %8, align 8
  call void @llvm.lifetime.start.p0(i64 8, ptr %9) #9
  %10 = load i64, ptr %6, align 8
  %11 = load i64, ptr %5, align 8
  %12 = sub i64 %10, %11
  store i64 %12, ptr %9, align 8
  %13 = load i64, ptr %9, align 8
  %14 = icmp sle i64 %13, 0
  br i1 %14, label %15, label %18

15:                                               ; preds = %4
  %16 = load ptr, ptr %7, align 8
  store i64 0, ptr %16, align 8
  %17 = load ptr, ptr %8, align 8
  store i32 0, ptr %17, align 4
  br label %26

18:                                               ; preds = %4
  %19 = load i64, ptr %9, align 8
  %20 = sdiv i64 %19, 1000000
  %21 = load ptr, ptr %7, align 8
  store i64 %20, ptr %21, align 8
  %22 = load i64, ptr %9, align 8
  %23 = srem i64 %22, 1000000
  %24 = trunc i64 %23 to i32
  %25 = load ptr, ptr %8, align 8
  store i32 %24, ptr %25, align 4
  br label %26

26:                                               ; preds = %18, %15
  call void @llvm.lifetime.end.p0(i64 8, ptr %9) #9
  ret void
}