; Function Attrs: mustprogress nofree norecurse nosync nounwind willreturn memory(argmem: write) uwtable
define dso_local void @feTimestampDifference(i64 noundef %0, i64 noundef %1, ptr noundef writeonly captures(none) initializes((0, 8)) %2, ptr noundef writeonly captures(none) initializes((0, 4)) %3) local_unnamed_addr #8 {
  %5 = sub i64 %1, %0
  %6 = icmp slt i64 %5, 1
  br i1 %6, label %11, label %7

7:                                                ; preds = %4
  %8 = udiv i64 %5, 1000000
  %9 = urem i64 %5, 1000000
  %10 = trunc nuw nsw i64 %9 to i32
  br label %11

11:                                               ; preds = %4, %7
  %.sink = phi i64 [ %8, %7 ], [ 0, %4 ]
  %storemerge = phi i32 [ %10, %7 ], [ 0, %4 ]
  store i64 %.sink, ptr %2, align 8
  store i32 %storemerge, ptr %3, align 4
  ret void
}